target datalayout = "e-m:e-p270:32:32-p271:32:32-p272:64:64-i64:64-i128:128-f80:128-n8:16:32:64-S128"
target triple = "x86_64-pc-linux-gnu"

@proto_register_elasticsearch.ett = internal global [5 x ptr] [ptr @ett_elasticsearch, ptr @ett_elasticsearch_address, ptr @ett_elasticsearch_discovery_node, ptr @ett_elasticsearch_status_flags, ptr @ett_elasticsearch_header], align 16
@.str.70 = private unnamed_addr constant [14 x i8] c"Elasticsearch\00", align 1
@.str.71 = private unnamed_addr constant [14 x i8] c"elasticsearch\00", align 1
@proto_elasticsearch = internal global i32 0, align 4
@.str.72 = private unnamed_addr constant [21 x i8] c"elasticsearch_binary\00", align 1
@elasticsearch_handle_binary = internal global ptr null, align 8
@.str.73 = private unnamed_addr constant [23 x i8] c"elasticsearch_zen_ping\00", align 1
@elasticsearch_zen_handle = internal global ptr null, align 8

; Function Attrs: null_pointer_is_valid sspstrong uwtable
define hidden void @proto_register_elasticsearch() #0 {
  %1 = alloca ptr, align 8
  call void @llvm.lifetime.start.p0(i64 8, ptr %1) #6
  %2 = call i32 @proto_register_protocol(ptr noundef @.str.70, ptr noundef @.str.70, ptr noundef @.str.71)
  store i32 %2, ptr @proto_elasticsearch, align 4
  %3 = load i32, ptr @proto_elasticsearch, align 4
  %4 = call ptr @expert_register_protocol(i32 noundef %3)
  store ptr %4, ptr %1, align 8
  %5 = load ptr, ptr %1, align 8
  call void @expert_register_field_array(ptr noundef %5, ptr noundef @proto_register_elasticsearch.ei, i32 noundef 3)
  %6 = load i32, ptr @proto_elasticsearch, align 4
  call void @proto_register_field_array(i32 noundef %6, ptr noundef @proto_register_elasticsearch.hf, i32 noundef 33)
  call void @proto_register_subtree_array(ptr noundef @proto_register_elasticsearch.ett, i32 noundef 5)
  %7 = load i32, ptr @proto_elasticsearch, align 4
  %8 = call ptr @register_dissector(ptr noundef @.str.72, ptr noundef @dissect_elasticsearch_binary, i32 noundef %7)
  store ptr %8, ptr @elasticsearch_handle_binary, align 8
  %9 = load i32, ptr @proto_elasticsearch, align 4
  %10 = call ptr @register_dissector(ptr noundef @.str.73, ptr noundef @dissect_elasticsearch_zen_ping, i32 noundef %9)
  store ptr %10, ptr @elasticsearch_zen_handle, align 8
  call void @llvm.lifetime.end.p0(i64 8, ptr %1) #6
  ret void
}